; Function Attrs: nounwind uwtable
define ptr @l_Lean_Lsp_InitializeParams_editDelay(ptr noundef readonly captures(none) %0) local_unnamed_addr #0 {
  %2 = getelementptr inbounds nuw i8, ptr %0, i64 32
  %3 = load ptr, ptr %2, align 8, !tbaa !9
  %4 = ptrtoint ptr %3 to i64
  %5 = and i64 %4, 1
  %.not.i = icmp eq i64 %5, 0
  br i1 %.not.i, label %9, label %6

6:                                                ; preds = %1
  %7 = lshr i64 %4, 1
  %8 = trunc i64 %7 to i32
  br label %lean_obj_tag.exit

9:                                                ; preds = %1
  %10 = getelementptr i8, ptr %3, i64 4
  %.val.i = load i32, ptr %10, align 4
  %11 = lshr i32 %.val.i, 24
  br label %lean_obj_tag.exit

lean_obj_tag.exit:                                ; preds = %6, %9
  %.0.i = phi i32 [ %8, %6 ], [ %11, %9 ]
  %12 = icmp eq i32 %.0.i, 0
  br i1 %12, label %lean_inc.exit, label %13

13:                                               ; preds = %lean_obj_tag.exit
  %14 = getelementptr inbounds nuw i8, ptr %3, i64 8
  %15 = load ptr, ptr %14, align 8, !tbaa !9
  %16 = getelementptr inbounds nuw i8, ptr %15, i64 8
  %17 = load ptr, ptr %16, align 8, !tbaa !9
  %18 = ptrtoint ptr %17 to i64
  %19 = and i64 %18, 1
  %.not.i11 = icmp eq i64 %19, 0
  br i1 %.not.i11, label %23, label %20

20:                                               ; preds = %13
  %21 = lshr i64 %18, 1
  %22 = trunc i64 %21 to i32
  br label %lean_obj_tag.exit14

23:                                               ; preds = %13
  %24 = getelementptr i8, ptr %17, i64 4
  %.val.i13 = load i32, ptr %24, align 4
  %25 = lshr i32 %.val.i13, 24
  br label %lean_obj_tag.exit14

lean_obj_tag.exit14:                              ; preds = %20, %23
  %.0.i12 = phi i32 [ %22, %20 ], [ %25, %23 ]
  %26 = icmp eq i32 %.0.i12, 0
  br i1 %26, label %lean_inc.exit, label %27

27:                                               ; preds = %lean_obj_tag.exit14
  %28 = getelementptr inbounds nuw i8, ptr %17, i64 8
  %29 = load ptr, ptr %28, align 8, !tbaa !9
  %30 = ptrtoint ptr %29 to i64
  %31 = and i64 %30, 1
  %.not = icmp eq i64 %31, 0
  br i1 %.not, label %32, label %lean_inc.exit

32:                                               ; preds = %27
  %.val.i15 = load i32, ptr %29, align 4, !tbaa !4
  %33 = icmp sgt i32 %.val.i15, 0
  br i1 %33, label %34, label %36, !prof !11

34:                                               ; preds = %32
  %35 = add nuw i32 %.val.i15, 1
  store i32 %35, ptr %29, align 4, !tbaa !4
  br label %lean_inc.exit

36:                                               ; preds = %32
  %.not.i16 = icmp eq i32 %.val.i15, 0
  br i1 %.not.i16, label %lean_inc.exit, label %37

37:                                               ; preds = %36
  tail call void @lean_inc_ref_cold(ptr noundef nonnull %29) #6
  br label %lean_inc.exit

lean_inc.exit:                                    ; preds = %27, %34, %36, %37, %lean_obj_tag.exit14, %lean_obj_tag.exit
  %.0 = phi ptr [ inttoptr (i64 401 to ptr), %lean_obj_tag.exit ], [ inttoptr (i64 401 to ptr), %lean_obj_tag.exit14 ], [ %29, %37 ], [ %29, %36 ], [ %29, %34 ], [ %29, %27 ]
  ret ptr %.0
}